; ModuleID = '60/1491.c'
source_filename = "60/1491.c"
target datalayout = "e-m:e-p270:32:32-p271:32:32-p272:64:64-i64:64-f80:128-n8:16:32:64-S128"
target triple = "x86_64-pc-linux-gnu"

@.str = private unnamed_addr constant [3 x i8] c"%d\00", align 1
@.str.1 = private unnamed_addr constant [7 x i8] c"%d %d\0A\00", align 1
@.str.2 = private unnamed_addr constant [6 x i8] c"empty\00", align 1

; Function Attrs: noinline nounwind uwtable
define dso_local i32 @sushu(i32 %0) #0 {
  %2 = alloca i32, align 4
  %3 = alloca i32, align 4
  %4 = alloca double, align 8
  %5 = alloca i32, align 4
  %6 = alloca i32, align 4
  store i32 %0, i32* %3, align 4
  store i32 0, i32* %6, align 4
  %7 = load i32, i32* %3, align 4
  %8 = sitofp i32 %7 to double
  %9 = call double @sqrt(double %8) #3
  store double %9, double* %4, align 8
  store i32 2, i32* %5, align 4
  br label %10

10:                                               ; preds = %22, %1
  %11 = load i32, i32* %5, align 4
  %12 = sitofp i32 %11 to double
  %13 = load double, double* %4, align 8
  %14 = fcmp ole double %12, %13
  br i1 %14, label %15, label %25

15:                                               ; preds = %10
  %16 = load i32, i32* %3, align 4
  %17 = load i32, i32* %5, align 4
  %18 = srem i32 %16, %17
  %19 = icmp eq i32 %18, 0
  br i1 %19, label %20, label %21

20:                                               ; preds = %15
  br label %25

21:                                               ; preds = %15
  br label %22

22:                                               ; preds = %21
  %23 = load i32, i32* %5, align 4
  %24 = add nsw i32 %23, 1
  store i32 %24, i32* %5, align 4
  br label %10

25:                                               ; preds = %20, %10
  %26 = load i32, i32* %5, align 4
  %27 = sitofp i32 %26 to double
  %28 = load double, double* %4, align 8
  %29 = fcmp ogt double %27, %28
  br i1 %29, label %30, label %31

30:                                               ; preds = %25
  store i32 1, i32* %2, align 4
  br label %32

31:                                               ; preds = %25
  store i32 0, i32* %2, align 4
  br label %32

32:                                               ; preds = %31, %30
  %33 = load i32, i32* %2, align 4
  ret i32 %33
}

; Function Attrs: nounwind
declare dso_local double @sqrt(double) #1

; Function Attrs: noinline nounwind uwtable
define dso_local i32 @main() #0 {
  %1 = alloca i32, align 4
  %2 = alloca i32, align 4
  %3 = alloca i32, align 4
  store i32 0, i32* %1, align 4
  %4 = call i32 (i8*, ...) @__isoc99_scanf(i8* getelementptr inbounds ([3 x i8], [3 x i8]* @.str, i64 0, i64 0), i32* %2)
  %5 = load i32, i32* %2, align 4
  %6 = icmp sgt i32 %5, 4
  br i1 %6, label %7, label %32

7:                                                ; preds = %0
  store i32 5, i32* %3, align 4
  br label %8

8:                                                ; preds = %28, %7
  %9 = load i32, i32* %3, align 4
  %10 = load i32, i32* %2, align 4
  %11 = icmp sle i32 %9, %10
  br i1 %11, label %12, label %31

12:                                               ; preds = %8
  %13 = load i32, i32* %3, align 4
  %14 = call i32 @sushu(i32 %13)
  %15 = icmp eq i32 %14, 1
  br i1 %15, label %16, label %27

16:                                               ; preds = %12
  %17 = load i32, i32* %3, align 4
  %18 = sub nsw i32 %17, 2
  %19 = call i32 @sushu(i32 %18)
  %20 = icmp eq i32 %19, 1
  br i1 %20, label %21, label %26

21:                                               ; preds = %16
  %22 = load i32, i32* %3, align 4
  %23 = sub nsw i32 %22, 2
  %24 = load i32, i32* %3, align 4
  %25 = call i32 (i8*, ...) @printf(i8* getelementptr inbounds ([7 x i8], [7 x i8]* @.str.1, i64 0, i64 0), i32 %23, i32 %24)
  br label %26

26:                                               ; preds = %21, %16
  br label %27

27:                                               ; preds = %26, %12
  br label %28

28:                                               ; preds = %27
  %29 = load i32, i32* %3, align 4
  %30 = add nsw i32 %29, 1
  store i32 %30, i32* %3, align 4
  br label %8

31:                                               ; preds = %8
  br label %34

32:                                               ; preds = %0
  %33 = call i32 (i8*, ...) @printf(i8* getelementptr inbounds ([6 x i8], [6 x i8]* @.str.2, i64 0, i64 0))
  br label %34

34:                                               ; preds = %32, %31
  %35 = load i32, i32* %1, align 4
  ret i32 %35
}

declare dso_local i32 @__isoc99_scanf(i8*, ...) #2

declare dso_local i32 @printf(i8*, ...) #2


!llvm.module.flags = !{!0}
!llvm.ident = !{!1}

!0 = !{i32 1, !"wchar_size", i32 4}
!1 = !{!"clang version 10.0.0-4ubuntu1 "}
